; Function Attrs: mustprogress nounwind uwtable
define internal fastcc void @_ZN6hermes6ESTree6detail11VisitCallerINS_12_GLOBAL__N_15GenJSENS0_14IdentifierNodeEvE4callERS4_PS5_PNS0_4NodeE(ptr %v.0.val, ptr %node.48.val.0.val, i64 %node.48.val.8.val) unnamed_addr #0 align 2 {
entry:
  %OutBufEnd.i.i = getelementptr inbounds nuw i8, ptr %v.0.val, i64 16
  %0 = load ptr, ptr %OutBufEnd.i.i, align 8
  %OutBufCur.i.i = getelementptr inbounds nuw i8, ptr %v.0.val, i64 24
  %1 = load ptr, ptr %OutBufCur.i.i, align 8
  %sub.ptr.lhs.cast.i.i = ptrtoint ptr %0 to i64
  %sub.ptr.rhs.cast.i.i = ptrtoint ptr %1 to i64
  %sub.ptr.sub.i.i = sub i64 %sub.ptr.lhs.cast.i.i, %sub.ptr.rhs.cast.i.i
  %cmp.i.i = icmp ugt i64 %node.48.val.8.val, %sub.ptr.sub.i.i
  br i1 %cmp.i.i, label %if.then.i.i, label %if.end.i.i

if.then.i.i:                                      ; preds = %entry
  %call3.i.i = tail call noundef nonnull align 8 dereferenceable(36) ptr @_ZN4llvh11raw_ostream5writeEPKcm(ptr noundef nonnull align 8 dereferenceable(36) %v.0.val, ptr noundef %node.48.val.0.val, i64 noundef %node.48.val.8.val) #12
  br label %_ZN6hermes12_GLOBAL__N_15GenJS5visitEPNS_6ESTree14IdentifierNodeE.exit

if.end.i.i:                                       ; preds = %entry
  %tobool.not.i.i = icmp eq i64 %node.48.val.8.val, 0
  br i1 %tobool.not.i.i, label %_ZN6hermes12_GLOBAL__N_15GenJS5visitEPNS_6ESTree14IdentifierNodeE.exit, label %if.then4.i.i

if.then4.i.i:                                     ; preds = %if.end.i.i
  tail call void @llvm.memcpy.p0.p0.i64(ptr align 1 %1, ptr align 1 %node.48.val.0.val, i64 %node.48.val.8.val, i1 false)
  %2 = load ptr, ptr %OutBufCur.i.i, align 8
  %add.ptr.i.i = getelementptr inbounds i8, ptr %2, i64 %node.48.val.8.val
  store ptr %add.ptr.i.i, ptr %OutBufCur.i.i, align 8
  br label %_ZN6hermes12_GLOBAL__N_15GenJS5visitEPNS_6ESTree14IdentifierNodeE.exit

_ZN6hermes12_GLOBAL__N_15GenJS5visitEPNS_6ESTree14IdentifierNodeE.exit: ; preds = %if.then.i.i, %if.end.i.i, %if.then4.i.i
  ret void
}